; Function Attrs: mustprogress uwtable
define noundef signext range(i8 0, 2) i8 @_ZN6icu_778RuleHalf13isValidOutputERNS_20TransliteratorParserE(ptr noundef nonnull align 8 dereferenceable(112) %0, ptr noundef nonnull readonly align 8 captures(none) dereferenceable(498) %1) local_unnamed_addr #1 align 2 {
  %3 = getelementptr inbounds nuw i8, ptr %0, i64 16
  %4 = getelementptr inbounds nuw i8, ptr %0, i64 20
  %5 = load i16, ptr %3, align 8, !tbaa !44
  %6 = icmp slt i16 %5, 0
  %7 = ashr i16 %5, 5
  %8 = sext i16 %7 to i32
  %9 = load i32, ptr %4, align 4
  %10 = select i1 %6, i32 %9, i32 %8
  %.not1415 = icmp slt i32 %10, 1
  br i1 %.not1415, label %_ZN6icu_779ParseData10isReplacerEi.exit.thread, label %.lr.ph

.lr.ph:                                           ; preds = %2
  %11 = getelementptr inbounds nuw i8, ptr %0, i64 8
  %12 = getelementptr inbounds nuw i8, ptr %1, i64 184
  br label %13

13:                                               ; preds = %.lr.ph, %.backedge
  %.01116 = phi i32 [ 0, %.lr.ph ], [ %17, %.backedge ]
  %14 = tail call noundef i32 @_ZNK6icu_7713UnicodeString8char32AtEi(ptr noundef nonnull align 8 dereferenceable(64) %11, i32 noundef %.01116)
  %15 = icmp ult i32 %14, 65536
  %16 = select i1 %15, i32 1, i32 2
  %17 = add nuw nsw i32 %16, %.01116
  %18 = load ptr, ptr %12, align 8, !tbaa !74
  %19 = getelementptr inbounds nuw i8, ptr %18, i64 8
  %20 = load ptr, ptr %19, align 8, !tbaa !17
  %21 = getelementptr inbounds nuw i8, ptr %20, i64 1162
  %22 = load i16, ptr %21, align 2, !tbaa !31
  %23 = zext i16 %22 to i32
  %24 = sub nsw i32 %14, %23
  %25 = icmp sgt i32 %24, -1
  br i1 %25, label %26, label %.backedge

26:                                               ; preds = %13
  %27 = getelementptr inbounds nuw i8, ptr %18, i64 16
  %28 = load ptr, ptr %27, align 8, !tbaa !23
  %29 = getelementptr inbounds nuw i8, ptr %28, i64 8
  %30 = load i32, ptr %29, align 8, !tbaa !38
  %31 = icmp slt i32 %24, %30
  br i1 %31, label %32, label %.backedge

32:                                               ; preds = %26
  %33 = tail call noundef ptr @_ZNK6icu_777UVector9elementAtEi(ptr noundef nonnull align 8 dereferenceable(40) %28, i32 noundef %24)
  %.not.i = icmp eq ptr %33, null
  br i1 %.not.i, label %_ZN6icu_779ParseData10isReplacerEi.exit.thread, label %_ZN6icu_779ParseData10isReplacerEi.exit

_ZN6icu_779ParseData10isReplacerEi.exit:          ; preds = %32
  %34 = load ptr, ptr %33, align 8, !tbaa !15
  %35 = getelementptr inbounds nuw i8, ptr %34, i64 40
  %36 = load ptr, ptr %35, align 8
  %37 = tail call noundef ptr %36(ptr noundef nonnull align 8 dereferenceable(8) %33)
  %.not = icmp eq ptr %37, null
  br i1 %.not, label %_ZN6icu_779ParseData10isReplacerEi.exit.thread, label %.backedge

.backedge:                                        ; preds = %26, %13, %_ZN6icu_779ParseData10isReplacerEi.exit
  %38 = load i16, ptr %3, align 8, !tbaa !44
  %39 = icmp slt i16 %38, 0
  %40 = ashr i16 %38, 5
  %41 = sext i16 %40 to i32
  %42 = load i32, ptr %4, align 4
  %43 = select i1 %39, i32 %42, i32 %41
  %.not14.not = icmp slt i32 %17, %43
  br i1 %.not14.not, label %13, label %_ZN6icu_779ParseData10isReplacerEi.exit.thread, !llvm.loop !80

_ZN6icu_779ParseData10isReplacerEi.exit.thread:   ; preds = %_ZN6icu_779ParseData10isReplacerEi.exit, %.backedge, %32, %2
  %.not14.lcssa = phi i8 [ 1, %2 ], [ 0, %32 ], [ 1, %.backedge ], [ 0, %_ZN6icu_779ParseData10isReplacerEi.exit ]
  ret i8 %.not14.lcssa
}